Certificate:
    Data:
        Version: 3 (0x2)
        Serial Number: 226996288 (0xd87b040)
        Signature Algorithm: sha256WithRSAEncryption
        Issuer: C = RS, ST = Vojvodina, L = Sremska Mitrovica, O = GOVEED20, OU = CA, CN = Angus Goveed
        Validity
            Not Before: Dec 21 15:56:31 2020 GMT
            Not After : Dec 19 15:56:31 2030 GMT
        Subject: C = RS, ST = Vojvodina, L = Sremska Mitrovica, O = GOVEED20, OU = CA, CN = Angus Goveed
        Subject Public Key Info:
            Public Key Algorithm: rsaEncryption
                RSA Public-Key: (2048 bit)
                Modulus:
                    00:cf:d0:f5:83:34:d2:20:71:b4:c4:7b:e5:6a:28:
                    f0:5c:13:24:9a:81:ce:f5:85:6c:92:51:ce:6d:98:
                    3a:ca:20:37:72:b0:c6:96:82:83:4b:1e:9e:bf:37:
                    28:f6:17:5f:53:32:22:bf:d7:90:8e:0f:b7:f2:5d:
                    85:32:dd:f9:50:86:6c:2b:eb:1c:18:15:29:10:ef:
                    91:1c:fe:b8:bd:0f:30:67:da:37:cd:7c:2b:a1:14:
                    03:bd:85:16:c9:05:4f:de:d7:bf:60:0c:9f:b1:0c:
                    4d:03:b4:e9:a6:c8:f5:8c:c5:f9:76:66:1c:49:aa:
                    dd:ee:33:79:4c:fd:18:97:01:a2:24:d1:19:dc:93:
                    03:18:12:bc:0e:1b:ed:8e:59:86:4a:75:34:d9:e0:
                    d8:eb:f9:20:5e:a6:2a:95:29:b5:92:ea:ad:69:4c:
                    b1:4a:bb:b0:48:66:64:c2:91:de:ce:4b:27:0a:49:
                    33:f9:1e:66:e2:46:e5:3e:18:76:50:30:68:29:5f:
                    97:28:ca:24:33:e8:dd:7f:e2:a4:c1:96:72:6a:38:
                    96:7e:37:95:ea:63:f7:c9:0f:e9:4d:01:d9:3f:e1:
                    f2:2f:ce:0f:2e:28:e0:4f:f7:91:89:33:09:af:b4:
                    17:4a:58:56:b0:7c:6a:61:53:b7:56:8a:98:59:fa:
                    34:15
                Exponent: 65537 (0x10001)
        X509v3 extensions:
            X509v3 Subject Key Identifier: 
                9F:6E:FD:9B:39:CD:72:C5:E0:77:62:89:37:26:F5:C6:B4:33:1E:35
            X509v3 Subject Alternative Name: 
                DNS:localhost
            X509v3 Basic Constraints: 
                CA:TRUE
    Signature Algorithm: sha256WithRSAEncryption
         45:23:24:81:3c:13:92:86:11:ed:b2:13:37:db:86:1a:72:a0:
         b1:92:bc:ca:ec:bd:70:92:bc:16:54:ef:30:39:23:b4:b4:0f:
         44:3d:5d:04:87:e6:2b:12:9a:cc:d5:7b:47:20:fe:34:95:60:
         a4:d5:9d:df:b1:48:2c:9e:ab:ce:70:ac:1e:2a:6e:08:13:24:
         b8:2b:24:9b:29:8e:f0:21:5b:a0:ca:c6:9e:f5:a6:f5:b5:0a:
         85:f7:ba:bc:49:57:ed:ed:e5:bf:c3:0b:c1:c5:d8:74:8d:dd:
         16:10:7b:51:7e:45:a8:25:e3:73:76:75:d8:18:3b:9a:da:46:
         0c:50:71:41:99:10:f7:2d:51:a1:20:12:62:d9:43:db:d9:2f:
         38:12:cb:63:e7:83:bb:6d:48:78:39:2e:cd:a0:06:51:28:63:
         0f:9c:66:0d:a1:6d:cd:85:70:87:c1:e7:13:ec:8a:ee:96:99:
         51:8d:02:22:1a:1b:79:84:0b:93:0d:0d:26:22:ad:e9:0a:f2:
         3f:44:df:ea:08:82:07:10:11:48:2a:cc:58:b6:82:9b:50:b1:
         e3:8f:6f:13:e0:ed:c5:3d:64:1b:1d:9c:79:79:09:1c:99:f2:
         a7:39:03:7c:a4:b1:5d:21:f0:ce:11:b4:27:3d:19:ec:38:44:
         8f:ff:6d:2d
-----BEGIN CERTIFICATE-----
MIIDqzCCApOgAwIBAgIEDYewQDANBgkqhkiG9w0BAQsFADB0MQswCQYDVQQGEwJS
UzESMBAGA1UECBMJVm9qdm9kaW5hMRowGAYDVQQHExFTcmVtc2thIE1pdHJvdmlj
YTERMA8GA1UEChMIR09WRUVEMjAxCzAJBgNVBAsTAkNBMRUwEwYDVQQDEwxBbmd1
cyBHb3ZlZWQwHhcNMjAxMjIxMTU1NjMxWhcNMzAxMjE5MTU1NjMxWjB0MQswCQYD
VQQGEwJSUzESMBAGA1UECBMJVm9qdm9kaW5hMRowGAYDVQQHExFTcmVtc2thIE1p
dHJvdmljYTERMA8GA1UEChMIR09WRUVEMjAxCzAJBgNVBAsTAkNBMRUwEwYDVQQD
EwxBbmd1cyBHb3ZlZWQwggEiMA0GCSqGSIb3DQEBAQUAA4IBDwAwggEKAoIBAQDP
0PWDNNIgcbTEe+VqKPBcEySagc71hWySUc5tmDrKIDdysMaWgoNLHp6/Nyj2F19T
MiK/15COD7fyXYUy3flQhmwr6xwYFSkQ75Ec/ri9DzBn2jfNfCuhFAO9hRbJBU/e
179gDJ+xDE0DtOmmyPWMxfl2ZhxJqt3uM3lM/RiXAaIk0RnckwMYErwOG+2OWYZK
dTTZ4Njr+SBepiqVKbWS6q1pTLFKu7BIZmTCkd7OSycKSTP5HmbiRuU+GHZQMGgp
X5coyiQz6N1/4qTBlnJqOJZ+N5XqY/fJD+lNAdk/4fIvzg8uKOBP95GJMwmvtBdK
WFawfGphU7dWiphZ+jQVAgMBAAGjRTBDMB0GA1UdDgQWBBSfbv2bOc1yxeB3Yok3
JvXGtDMeNTAUBgNVHREEDTALgglsb2NhbGhvc3QwDAYDVR0TBAUwAwEB/zANBgkq
hkiG9w0BAQsFAAOCAQEARSMkgTwTkoYR7bITN9uGGnKgsZK8yuy9cJK8FlTvMDkj
tLQPRD1dBIfmKxKazNV7RyD+NJVgpNWd37FILJ6rznCsHipuCBMkuCskmymO8CFb
oMrGnvWm9bUKhfe6vElX7e3lv8MLwcXYdI3dFhB7UX5FqCXjc3Z12Bg7mtpGDFBx
QZkQ9y1RoSASYtlD29kvOBLLY+eDu21IeDkuzaAGUShjD5xmDaFtzYVwh8HnE+yK
7paZUY0CIhobeYQLkw0NJiKt6QryP0Tf6giCBxARSCrMWLaCm1Cx449vE+DtxT1k
Gx2ceXkJHJnypzkDfKSxXSHwzhG0Jz0Z7DhEj/9tLQ==
-----END CERTIFICATE-----
